; Function Attrs: mustprogress uwtable
define hidden noundef zeroext i1 @_ZN2pb6solver11to_formulasERSt8functionIF7obj_refI4expr11ast_managerEN3sat7literalEEER10ref_vectorIS3_S4_E(ptr noundef nonnull align 8 dereferenceable(1049) %0, ptr noundef nonnull align 8 dereferenceable(32) %1, ptr noundef nonnull align 8 dereferenceable(16) %2) unnamed_addr #3 align 2 personality ptr @__gxx_personality_v0 {
  %4 = alloca %class.obj_ref, align 8
  %5 = alloca %class.obj_ref, align 8
  %6 = getelementptr inbounds nuw i8, ptr %0, i64 744
  %7 = load ptr, ptr %6, align 8, !tbaa !323
  %8 = icmp eq ptr %7, null
  br i1 %8, label %._crit_edge, label %_ZNK6vectorIPN2pb10constraintELb0EjE3endEv.exit

_ZNK6vectorIPN2pb10constraintELb0EjE3endEv.exit:  ; preds = %3
  %9 = getelementptr inbounds i8, ptr %7, i64 -4
  %10 = load i32, ptr %9, align 4, !tbaa !103
  %11 = zext i32 %10 to i64
  %12 = getelementptr inbounds nuw ptr, ptr %7, i64 %11
  %.not25 = icmp eq i32 %10, 0
  br i1 %.not25, label %._crit_edge, label %.lr.ph

.lr.ph:                                           ; preds = %_ZNK6vectorIPN2pb10constraintELb0EjE3endEv.exit
  %13 = getelementptr inbounds nuw i8, ptr %2, i64 8
  br label %14

._crit_edge:                                      ; preds = %58, %3, %_ZNK6vectorIPN2pb10constraintELb0EjE3endEv.exit
  ret i1 true

14:                                               ; preds = %.lr.ph, %58
  %.01626 = phi ptr [ %7, %.lr.ph ], [ %59, %58 ]
  %15 = load ptr, ptr %.01626, align 8, !tbaa !324
  %16 = getelementptr inbounds nuw i8, ptr %15, i64 8
  %17 = load i32, ptr %16, align 8, !tbaa !326
  switch i32 %17, label %58 [
    i32 0, label %18
    i32 1, label %38
  ]

18:                                               ; preds = %14
  call void @llvm.lifetime.start.p0(i64 16, ptr nonnull %4) #18
  %19 = call noundef nonnull align 8 dereferenceable(64) ptr @_ZN2pb10constraint7to_cardEv(ptr noundef nonnull align 8 dereferenceable(64) %15)
  call void @_ZN2pb6solver8get_cardERSt8functionIF7obj_refI4expr11ast_managerEN3sat7literalEEERKNS_4cardE(ptr dead_on_unwind nonnull writable sret(%class.obj_ref) align 8 %4, ptr noundef nonnull align 8 dereferenceable(1049) %0, ptr noundef nonnull align 8 dereferenceable(32) %1, ptr noundef nonnull align 8 dereferenceable(64) %19)
  %20 = load ptr, ptr %4, align 8, !tbaa !304
  %21 = load ptr, ptr %13, align 8, !tbaa !327
  %22 = icmp eq ptr %21, null
  br i1 %22, label %29, label %23

23:                                               ; preds = %18
  %24 = getelementptr inbounds i8, ptr %21, i64 -4
  %25 = load i32, ptr %24, align 4, !tbaa !103
  %26 = getelementptr inbounds i8, ptr %21, i64 -8
  %27 = load i32, ptr %26, align 4, !tbaa !103
  %28 = icmp eq i32 %25, %27
  br i1 %28, label %29, label %_ZN7obj_refI4expr11ast_managerED2Ev.exit

29:                                               ; preds = %23, %18
  invoke void @_ZN6vectorIP4exprLb0EjE13expand_vectorEv(ptr noundef nonnull align 8 dereferenceable(8) %13)
          to label %.noexc unwind label %36

.noexc:                                           ; preds = %29
  %.pre.i.i = load ptr, ptr %13, align 8, !tbaa !327
  %.phi.trans.insert.i.i = getelementptr inbounds i8, ptr %.pre.i.i, i64 -4
  %.pre2.i.i = load i32, ptr %.phi.trans.insert.i.i, align 4, !tbaa !103
  br label %_ZN7obj_refI4expr11ast_managerED2Ev.exit

_ZN7obj_refI4expr11ast_managerED2Ev.exit:         ; preds = %23, %.noexc
  %30 = phi i32 [ %.pre2.i.i, %.noexc ], [ %25, %23 ]
  %31 = phi ptr [ %.pre.i.i, %.noexc ], [ %21, %23 ]
  %32 = getelementptr inbounds i8, ptr %31, i64 -4
  %33 = zext i32 %30 to i64
  %34 = getelementptr inbounds nuw ptr, ptr %31, i64 %33
  store ptr %20, ptr %34, align 8, !tbaa !101
  %35 = add i32 %30, 1
  store i32 %35, ptr %32, align 4, !tbaa !103
  call void @llvm.lifetime.end.p0(i64 16, ptr nonnull %4) #18
  br label %58

36:                                               ; preds = %29
  %37 = landingpad { ptr, i32 }
          cleanup
  call void @_ZN7obj_refI4expr11ast_managerED2Ev(ptr noundef nonnull align 8 dereferenceable(16) %4) #18
  call void @llvm.lifetime.end.p0(i64 16, ptr nonnull %4) #18
  br label %60

38:                                               ; preds = %14
  call void @llvm.lifetime.start.p0(i64 16, ptr nonnull %5) #18
  %39 = call noundef nonnull align 8 dereferenceable(76) ptr @_ZN2pb10constraint5to_pbEv(ptr noundef nonnull align 8 dereferenceable(64) %15)
  call void @_ZN2pb6solver6get_pbERSt8functionIF7obj_refI4expr11ast_managerEN3sat7literalEEERKNS_3pbcE(ptr dead_on_unwind nonnull writable sret(%class.obj_ref) align 8 %5, ptr noundef nonnull align 8 dereferenceable(1049) %0, ptr noundef nonnull align 8 dereferenceable(32) %1, ptr noundef nonnull align 8 dereferenceable(76) %39)
  %40 = load ptr, ptr %5, align 8, !tbaa !304
  %41 = load ptr, ptr %13, align 8, !tbaa !327
  %42 = icmp eq ptr %41, null
  br i1 %42, label %49, label %43

43:                                               ; preds = %38
  %44 = getelementptr inbounds i8, ptr %41, i64 -4
  %45 = load i32, ptr %44, align 4, !tbaa !103
  %46 = getelementptr inbounds i8, ptr %41, i64 -8
  %47 = load i32, ptr %46, align 4, !tbaa !103
  %48 = icmp eq i32 %45, %47
  br i1 %48, label %49, label %_ZN7obj_refI4expr11ast_managerED2Ev.exit24

49:                                               ; preds = %43, %38
  invoke void @_ZN6vectorIP4exprLb0EjE13expand_vectorEv(ptr noundef nonnull align 8 dereferenceable(8) %13)
          to label %.noexc21 unwind label %56

.noexc21:                                         ; preds = %49
  %.pre.i.i18 = load ptr, ptr %13, align 8, !tbaa !327
  %.phi.trans.insert.i.i19 = getelementptr inbounds i8, ptr %.pre.i.i18, i64 -4
  %.pre2.i.i20 = load i32, ptr %.phi.trans.insert.i.i19, align 4, !tbaa !103
  br label %_ZN7obj_refI4expr11ast_managerED2Ev.exit24

_ZN7obj_refI4expr11ast_managerED2Ev.exit24:       ; preds = %43, %.noexc21
  %50 = phi i32 [ %.pre2.i.i20, %.noexc21 ], [ %45, %43 ]
  %51 = phi ptr [ %.pre.i.i18, %.noexc21 ], [ %41, %43 ]
  %52 = getelementptr inbounds i8, ptr %51, i64 -4
  %53 = zext i32 %50 to i64
  %54 = getelementptr inbounds nuw ptr, ptr %51, i64 %53
  store ptr %40, ptr %54, align 8, !tbaa !101
  %55 = add i32 %50, 1
  store i32 %55, ptr %52, align 4, !tbaa !103
  call void @llvm.lifetime.end.p0(i64 16, ptr nonnull %5) #18
  br label %58

56:                                               ; preds = %49
  %57 = landingpad { ptr, i32 }
          cleanup
  call void @_ZN7obj_refI4expr11ast_managerED2Ev(ptr noundef nonnull align 8 dereferenceable(16) %5) #18
  call void @llvm.lifetime.end.p0(i64 16, ptr nonnull %5) #18
  br label %60

58:                                               ; preds = %_ZN7obj_refI4expr11ast_managerED2Ev.exit24, %_ZN7obj_refI4expr11ast_managerED2Ev.exit, %14
  %59 = getelementptr inbounds nuw i8, ptr %.01626, i64 8
  %.not = icmp eq ptr %59, %12
  br i1 %.not, label %._crit_edge, label %14

60:                                               ; preds = %56, %36
  %.pn = phi { ptr, i32 } [ %57, %56 ], [ %37, %36 ]
  resume { ptr, i32 } %.pn
}